target datalayout = "e-m:e-p270:32:32-p271:32:32-p272:64:64-i64:64-i128:128-f80:128-n8:16:32:64-S128"
target triple = "x86_64-pc-linux-gnu"

%class.ConnectionGraph = type { %class.GrowableArray, %class.GrowableArray, %class.VectorSet, i32, i8, i8, ptr, ptr, ptr, %class.Unique_Node_List, i32, i32, double, ptr, %class.Node_Array }
%class.GrowableArray = type { %class.GrowableArrayWithAllocator, %class.GrowableArrayMetadata }
%class.GrowableArrayWithAllocator = type { %class.GrowableArrayView }
%class.GrowableArrayView = type { %class.GrowableArrayBase, ptr }
%class.GrowableArrayBase = type { i32, i32 }
%class.GrowableArrayMetadata = type { i64 }
%class.VectorSet = type { i32, ptr, i32, ptr }
%class.Unique_Node_List = type <{ %class.Node_List.base, [4 x i8], %class.VectorSet, i32, [4 x i8] }>
%class.Node_List.base = type <{ %class.Node_Array, i32 }>
%class.Node_Array = type { ptr, i32, ptr }
%class.Node = type <{ ptr, ptr, ptr, i32, i32, i32, i32, i32, i32, i32, [4 x i8] }>
%class.RegMask = type { %union.anon, i32, i32 }
%union.anon = type { [11 x i64] }
%class.Node.base = type <{ ptr, ptr, ptr, i32, i32, i32, i32, i32, i32, i32 }>
%class.PointsToNode = type { %class.GrowableArray, %class.GrowableArray, i8, i8, i8, i8, ptr, i32, i32 }
%class.PointsToIterator = type { ptr, i32, i32 }
%class.EdgeIterator = type { %class.PointsToIterator }
%class.BoxLockNode = type <{ %class.Node.base, i32, %class.RegMask, i32, [4 x i8] }>

@EliminateNestedLocks = external global i8, align 1

; Function Attrs: mustprogress nounwind uwtable
define linkonce_odr hidden noundef ptr @_ZNK12PointsToNode4edgeEi(ptr noundef nonnull align 8 dereferenceable(72) %0, i32 noundef %1) #1 comdat align 2 {
  %3 = alloca ptr, align 8
  %4 = alloca i32, align 4
  store ptr %0, ptr %3, align 8
  store i32 %1, ptr %4, align 4
  %5 = load ptr, ptr %3, align 8
  %6 = getelementptr inbounds %class.PointsToNode, ptr %5, i32 0, i32 0
  %7 = load i32, ptr %4, align 4
  %8 = call noundef nonnull align 8 dereferenceable(8) ptr @_ZNK17GrowableArrayViewIP12PointsToNodeE2atEi(ptr noundef nonnull align 8 dereferenceable(16) %6, i32 noundef %7)
  %9 = load ptr, ptr %8, align 8
  ret ptr %9
}

; Function Attrs: mustprogress nounwind uwtable
define linkonce_odr hidden void @_ZN16PointsToIteratorC2EPK12PointsToNodei(ptr noundef nonnull align 8 dereferenceable(16) %0, ptr noundef %1, i32 noundef %2) unnamed_addr #1 comdat align 2 {
  %4 = alloca ptr, align 8
  %5 = alloca ptr, align 8
  %6 = alloca i32, align 4
  store ptr %0, ptr %4, align 8
  store ptr %1, ptr %5, align 8
  store i32 %2, ptr %6, align 4
  %7 = load ptr, ptr %4, align 8
  %8 = getelementptr inbounds %class.PointsToIterator, ptr %7, i32 0, i32 0
  %9 = load ptr, ptr %5, align 8
  store ptr %9, ptr %8, align 8
  %10 = getelementptr inbounds %class.PointsToIterator, ptr %7, i32 0, i32 1
  %11 = load i32, ptr %6, align 4
  store i32 %11, ptr %10, align 8
  %12 = getelementptr inbounds %class.PointsToIterator, ptr %7, i32 0, i32 2
  store i32 0, ptr %12, align 4
  ret void
}

; Function Attrs: mustprogress nounwind uwtable
define linkonce_odr hidden noundef i32 @_ZNK12PointsToNode10edge_countEv(ptr noundef nonnull align 8 dereferenceable(72) %0) #1 comdat align 2 {
  %2 = alloca ptr, align 8
  store ptr %0, ptr %2, align 8
  %3 = load ptr, ptr %2, align 8
  %4 = getelementptr inbounds %class.PointsToNode, ptr %3, i32 0, i32 0
  %5 = call noundef i32 @_ZNK17GrowableArrayBase6lengthEv(ptr noundef nonnull align 4 dereferenceable(8) %4)
  ret i32 %5
}

; Function Attrs: mustprogress nounwind uwtable
define linkonce_odr hidden noundef nonnull align 8 dereferenceable(8) ptr @_ZNK17GrowableArrayViewIP12PointsToNodeE2atEi(ptr noundef nonnull align 8 dereferenceable(16) %0, i32 noundef %1) #1 comdat align 2 {
  %3 = alloca ptr, align 8
  %4 = alloca i32, align 4
  store ptr %0, ptr %3, align 8
  store i32 %1, ptr %4, align 4
  %5 = load ptr, ptr %3, align 8
  %6 = getelementptr inbounds %class.GrowableArrayView, ptr %5, i32 0, i32 1
  %7 = load ptr, ptr %6, align 8
  %8 = load i32, ptr %4, align 4
  %9 = sext i32 %8 to i64
  %10 = getelementptr inbounds ptr, ptr %7, i64 %9
  ret ptr %10
}

; Function Attrs: mustprogress nounwind uwtable
define linkonce_odr hidden noundef i32 @_ZNK17GrowableArrayBase6lengthEv(ptr noundef nonnull align 4 dereferenceable(8) %0) #1 comdat align 2 {
  %2 = alloca ptr, align 8
  store ptr %0, ptr %2, align 8
  %3 = load ptr, ptr %2, align 8
  %4 = getelementptr inbounds %class.GrowableArrayBase, ptr %3, i32 0, i32 0
  %5 = load i32, ptr %4, align 4
  ret i32 %5
}

; Function Attrs: mustprogress nounwind uwtable
define linkonce_odr hidden void @_ZN16PointsToIterator4nextEv(ptr noundef nonnull align 8 dereferenceable(16) %0) #1 comdat align 2 {
  %2 = alloca ptr, align 8
  store ptr %0, ptr %2, align 8
  %3 = load ptr, ptr %2, align 8
  %4 = getelementptr inbounds %class.PointsToIterator, ptr %3, i32 0, i32 2
  %5 = load i32, ptr %4, align 4
  %6 = add nsw i32 %5, 1
  store i32 %6, ptr %4, align 4
  ret void
}

; Function Attrs: mustprogress nounwind uwtable
define linkonce_odr hidden noundef ptr @_ZNK12EdgeIterator3getEv(ptr noundef nonnull align 8 dereferenceable(16) %0) #1 comdat align 2 {
  %2 = alloca ptr, align 8
  store ptr %0, ptr %2, align 8
  %3 = load ptr, ptr %2, align 8
  %4 = getelementptr inbounds %class.PointsToIterator, ptr %3, i32 0, i32 0
  %5 = load ptr, ptr %4, align 8
  %6 = getelementptr inbounds %class.PointsToIterator, ptr %3, i32 0, i32 2
  %7 = load i32, ptr %6, align 4
  %8 = call noundef ptr @_ZNK12PointsToNode4edgeEi(ptr noundef nonnull align 8 dereferenceable(72) %5, i32 noundef %7)
  ret ptr %8
}

; Function Attrs: mustprogress nounwind uwtable
define linkonce_odr hidden noundef zeroext i1 @_ZNK16PointsToIterator8has_nextEv(ptr noundef nonnull align 8 dereferenceable(16) %0) #1 comdat align 2 {
  %2 = alloca ptr, align 8
  store ptr %0, ptr %2, align 8
  %3 = load ptr, ptr %2, align 8
  %4 = getelementptr inbounds %class.PointsToIterator, ptr %3, i32 0, i32 2
  %5 = load i32, ptr %4, align 4
  %6 = getelementptr inbounds %class.PointsToIterator, ptr %3, i32 0, i32 1
  %7 = load i32, ptr %6, align 8
  %8 = icmp slt i32 %5, %7
  ret i1 %8
}

; Function Attrs: mustprogress nounwind uwtable
define linkonce_odr hidden void @_ZN12EdgeIteratorC2EPK12PointsToNode(ptr noundef nonnull align 8 dereferenceable(16) %0, ptr noundef %1) unnamed_addr #1 comdat align 2 {
  %3 = alloca ptr, align 8
  %4 = alloca ptr, align 8
  store ptr %0, ptr %3, align 8
  store ptr %1, ptr %4, align 8
  %5 = load ptr, ptr %3, align 8
  %6 = load ptr, ptr %4, align 8
  %7 = load ptr, ptr %4, align 8
  %8 = call noundef i32 @_ZNK12PointsToNode10edge_countEv(ptr noundef nonnull align 8 dereferenceable(72) %7)
  call void @_ZN16PointsToIteratorC2EPK12PointsToNodei(ptr noundef nonnull align 8 dereferenceable(16) %5, ptr noundef %6, i32 noundef %8)
  ret void
}

; Function Attrs: mustprogress nounwind uwtable
define linkonce_odr hidden noundef zeroext i1 @_ZNK12PointsToNode13is_JavaObjectEv(ptr noundef nonnull align 8 dereferenceable(72) %0) #1 comdat align 2 {
  %2 = alloca ptr, align 8
  store ptr %0, ptr %2, align 8
  %3 = load ptr, ptr %2, align 8
  %4 = getelementptr inbounds %class.PointsToNode, ptr %3, i32 0, i32 2
  %5 = load i8, ptr %4, align 8
  %6 = zext i8 %5 to i32
  %7 = icmp eq i32 %6, 1
  ret i1 %7
}

; Function Attrs: mustprogress nounwind uwtable
define linkonce_odr hidden noundef i32 @_ZNK12PointsToNode12escape_stateEv(ptr noundef nonnull align 8 dereferenceable(72) %0) #1 comdat align 2 {
  %2 = alloca ptr, align 8
  store ptr %0, ptr %2, align 8
  %3 = load ptr, ptr %2, align 8
  %4 = getelementptr inbounds %class.PointsToNode, ptr %3, i32 0, i32 4
  %5 = load i8, ptr %4, align 2
  %6 = zext i8 %5 to i32
  ret i32 %6
}

; Function Attrs: mustprogress nounwind uwtable
define linkonce_odr hidden noundef ptr @_ZNK15ConnectionGraph10ptnode_adrEi(ptr noundef nonnull align 8 dereferenceable(232) %0, i32 noundef %1) #1 comdat align 2 {
  %3 = alloca ptr, align 8
  %4 = alloca i32, align 4
  store ptr %0, ptr %3, align 8
  store i32 %1, ptr %4, align 4
  %5 = load ptr, ptr %3, align 8
  %6 = getelementptr inbounds %class.ConnectionGraph, ptr %5, i32 0, i32 0
  %7 = load i32, ptr %4, align 4
  %8 = call noundef nonnull align 8 dereferenceable(8) ptr @_ZNK17GrowableArrayViewIP12PointsToNodeE2atEi(ptr noundef nonnull align 8 dereferenceable(16) %6, i32 noundef %7)
  %9 = load ptr, ptr %8, align 8
  ret ptr %9
}

; Function Attrs: mustprogress nounwind uwtable
define linkonce_odr hidden noundef i32 @_ZNK15ConnectionGraph10nodes_sizeEv(ptr noundef nonnull align 8 dereferenceable(232) %0) #1 comdat align 2 {
  %2 = alloca ptr, align 8
  store ptr %0, ptr %2, align 8
  %3 = load ptr, ptr %2, align 8
  %4 = getelementptr inbounds %class.ConnectionGraph, ptr %3, i32 0, i32 0
  %5 = call noundef i32 @_ZNK17GrowableArrayBase6lengthEv(ptr noundef nonnull align 4 dereferenceable(8) %4)
  ret i32 %5
}

; Function Attrs: mustprogress nounwind uwtable
define linkonce_odr hidden noundef ptr @_ZNK4Node2inEj(ptr noundef nonnull align 8 dereferenceable(52) %0, i32 noundef %1) #1 comdat align 2 {
  %3 = alloca ptr, align 8
  %4 = alloca i32, align 4
  store ptr %0, ptr %3, align 8
  store i32 %1, ptr %4, align 4
  %5 = load ptr, ptr %3, align 8
  %6 = getelementptr inbounds %class.Node, ptr %5, i32 0, i32 1
  %7 = load ptr, ptr %6, align 8
  %8 = load i32, ptr %4, align 4
  %9 = zext i32 %8 to i64
  %10 = getelementptr inbounds ptr, ptr %7, i64 %9
  %11 = load ptr, ptr %10, align 8
  ret ptr %11
}

; Function Attrs: mustprogress nounwind uwtable
define linkonce_odr hidden void @_ZN11BoxLockNode9set_localEv(ptr noundef nonnull align 8 dereferenceable(156) %0) #1 comdat align 2 {
  %2 = alloca ptr, align 8
  store ptr %0, ptr %2, align 8
  %3 = load ptr, ptr %2, align 8
  %4 = getelementptr inbounds %class.BoxLockNode, ptr %3, i32 0, i32 3
  store i32 1, ptr %4, align 8
  ret void
}

; Function Attrs: mustprogress nounwind uwtable
define linkonce_odr hidden noundef ptr @_ZNK4Node10as_BoxLockEv(ptr noundef nonnull align 8 dereferenceable(52) %0) #1 comdat align 2 {
  %2 = alloca ptr, align 8
  store ptr %0, ptr %2, align 8
  %3 = load ptr, ptr %2, align 8
  ret ptr %3
}

; Function Attrs: mustprogress nounwind uwtable
define linkonce_odr hidden noundef ptr @_ZNK16AbstractLockNode8box_nodeEv(ptr noundef nonnull align 8 dereferenceable(132) %0) #1 comdat align 2 {
  %2 = alloca ptr, align 8
  store ptr %0, ptr %2, align 8
  %3 = load ptr, ptr %2, align 8
  %4 = call noundef ptr @_ZNK4Node2inEj(ptr noundef nonnull align 8 dereferenceable(52) %3, i32 noundef 6)
  ret ptr %4
}

; Function Attrs: mustprogress nounwind uwtable
define hidden noundef zeroext i1 @_ZN15ConnectionGraph17not_global_escapeEP4Node(ptr noundef nonnull align 8 dereferenceable(232) %0, ptr noundef %1) #1 align 2 {
  %3 = alloca i1, align 1
  %4 = alloca ptr, align 8
  %5 = alloca ptr, align 8
  %6 = alloca i32, align 4
  %7 = alloca ptr, align 8
  %8 = alloca i32, align 4
  %9 = alloca %class.EdgeIterator, align 8
  store ptr %0, ptr %4, align 8
  store ptr %1, ptr %5, align 8
  %10 = load ptr, ptr %4, align 8
  %11 = load ptr, ptr %5, align 8
  %12 = getelementptr inbounds %class.Node, ptr %11, i32 0, i32 7
  %13 = load i32, ptr %12, align 8
  store i32 %13, ptr %6, align 4
  %14 = load i32, ptr %6, align 4
  %15 = call noundef i32 @_ZNK15ConnectionGraph10nodes_sizeEv(ptr noundef nonnull align 8 dereferenceable(232) %10)
  %16 = icmp uge i32 %14, %15
  br i1 %16, label %17, label %18

17:                                               ; preds = %2
  store i1 false, ptr %3, align 1
  br label %46

18:                                               ; preds = %2
  %19 = load i32, ptr %6, align 4
  %20 = call noundef ptr @_ZNK15ConnectionGraph10ptnode_adrEi(ptr noundef nonnull align 8 dereferenceable(232) %10, i32 noundef %19)
  store ptr %20, ptr %7, align 8
  %21 = load ptr, ptr %7, align 8
  %22 = icmp eq ptr %21, null
  br i1 %22, label %23, label %24

23:                                               ; preds = %18
  store i1 false, ptr %3, align 1
  br label %46

24:                                               ; preds = %18
  %25 = load ptr, ptr %7, align 8
  %26 = call noundef i32 @_ZNK12PointsToNode12escape_stateEv(ptr noundef nonnull align 8 dereferenceable(72) %25)
  store i32 %26, ptr %8, align 4
  %27 = load i32, ptr %8, align 4
  %28 = icmp sge i32 %27, 3
  br i1 %28, label %29, label %30

29:                                               ; preds = %24
  store i1 false, ptr %3, align 1
  br label %46

30:                                               ; preds = %24
  %31 = load ptr, ptr %7, align 8
  %32 = call noundef zeroext i1 @_ZNK12PointsToNode13is_JavaObjectEv(ptr noundef nonnull align 8 dereferenceable(72) %31)
  br i1 %32, label %33, label %34

33:                                               ; preds = %30
  store i1 true, ptr %3, align 1
  br label %46

34:                                               ; preds = %30
  %35 = load ptr, ptr %7, align 8
  call void @_ZN12EdgeIteratorC2EPK12PointsToNode(ptr noundef nonnull align 8 dereferenceable(16) %9, ptr noundef %35)
  br label %36

36:                                               ; preds = %44, %34
  %37 = call noundef zeroext i1 @_ZNK16PointsToIterator8has_nextEv(ptr noundef nonnull align 8 dereferenceable(16) %9)
  br i1 %37, label %38, label %45

38:                                               ; preds = %36
  %39 = call noundef ptr @_ZNK12EdgeIterator3getEv(ptr noundef nonnull align 8 dereferenceable(16) %9)
  %40 = call noundef i32 @_ZNK12PointsToNode12escape_stateEv(ptr noundef nonnull align 8 dereferenceable(72) %39)
  %41 = icmp sge i32 %40, 3
  br i1 %41, label %42, label %43

42:                                               ; preds = %38
  store i1 false, ptr %3, align 1
  br label %46

43:                                               ; preds = %38
  br label %44

44:                                               ; preds = %43
  call void @_ZN16PointsToIterator4nextEv(ptr noundef nonnull align 8 dereferenceable(16) %9)
  br label %36, !llvm.loop !93

45:                                               ; preds = %36
  store i1 true, ptr %3, align 1
  br label %46

46:                                               ; preds = %45, %42, %33, %29, %23, %17
  %47 = load i1, ptr %3, align 1
  ret i1 %47
}

; Function Attrs: mustprogress nounwind uwtable
define linkonce_odr hidden noundef ptr @_ZNK16AbstractLockNode8obj_nodeEv(ptr noundef nonnull align 8 dereferenceable(132) %0) #1 comdat align 2 {
  %2 = alloca ptr, align 8
  store ptr %0, ptr %2, align 8
  %3 = load ptr, ptr %2, align 8
  %4 = call noundef ptr @_ZNK4Node2inEj(ptr noundef nonnull align 8 dereferenceable(52) %3, i32 noundef 5)
  ret ptr %4
}

; Function Attrs: mustprogress nounwind uwtable
define hidden noundef zeroext i1 @_ZN15ConnectionGraph18can_eliminate_lockEP16AbstractLockNode(ptr noundef nonnull align 8 dereferenceable(232) %0, ptr noundef %1) #1 align 2 {
  %3 = alloca i1, align 1
  %4 = alloca ptr, align 8
  %5 = alloca ptr, align 8
  store ptr %0, ptr %4, align 8
  store ptr %1, ptr %5, align 8
  %6 = load ptr, ptr %4, align 8
  %7 = load ptr, ptr %5, align 8
  %8 = call noundef zeroext i1 @_ZN16AbstractLockNode11is_balancedEv(ptr noundef nonnull align 8 dereferenceable(132) %7)
  br i1 %8, label %9, label %21

9:                                                ; preds = %2
  %10 = load ptr, ptr %5, align 8
  %11 = call noundef ptr @_ZNK16AbstractLockNode8obj_nodeEv(ptr noundef nonnull align 8 dereferenceable(132) %10)
  %12 = call noundef zeroext i1 @_ZN15ConnectionGraph17not_global_escapeEP4Node(ptr noundef nonnull align 8 dereferenceable(232) %6, ptr noundef %11)
  br i1 %12, label %13, label %21

13:                                               ; preds = %9
  %14 = load i8, ptr @EliminateNestedLocks, align 1
  %15 = trunc i8 %14 to i1
  br i1 %15, label %16, label %20

16:                                               ; preds = %13
  %17 = load ptr, ptr %5, align 8
  %18 = call noundef ptr @_ZNK16AbstractLockNode8box_nodeEv(ptr noundef nonnull align 8 dereferenceable(132) %17)
  %19 = call noundef ptr @_ZNK4Node10as_BoxLockEv(ptr noundef nonnull align 8 dereferenceable(52) %18)
  call void @_ZN11BoxLockNode9set_localEv(ptr noundef nonnull align 8 dereferenceable(156) %19)
  br label %20

20:                                               ; preds = %16, %13
  store i1 true, ptr %3, align 1
  br label %22

21:                                               ; preds = %9, %2
  store i1 false, ptr %3, align 1
  br label %22

22:                                               ; preds = %21, %20
  %23 = load i1, ptr %3, align 1
  ret i1 %23
}