; Function Attrs: mustprogress nounwind uwtable
define hidden noundef zeroext i1 @_ZN15ConnectionGraph18can_eliminate_lockEP16AbstractLockNode(ptr nocapture noundef nonnull readonly align 8 dereferenceable(232) %0, ptr noundef nonnull %1) local_unnamed_addr #0 align 2 {
  %3 = tail call noundef zeroext i1 @_ZN16AbstractLockNode11is_balancedEv(ptr noundef nonnull align 8 dereferenceable(132) %1) #12
  br i1 %3, label %4, label %_ZN15ConnectionGraph17not_global_escapeEP4Node.exit.thread

4:                                                ; preds = %2
  %5 = getelementptr inbounds i8, ptr %1, i64 8
  %6 = load ptr, ptr %5, align 8
  %7 = getelementptr inbounds i8, ptr %6, i64 40
  %8 = load ptr, ptr %7, align 8
  %9 = getelementptr inbounds i8, ptr %8, i64 40
  %10 = load i32, ptr %9, align 8
  %11 = load i32, ptr %0, align 8
  %.not.i = icmp ult i32 %10, %11
  br i1 %.not.i, label %12, label %_ZN15ConnectionGraph17not_global_escapeEP4Node.exit.thread

12:                                               ; preds = %4
  %13 = getelementptr inbounds i8, ptr %0, i64 8
  %14 = load ptr, ptr %13, align 8
  %15 = sext i32 %10 to i64
  %16 = getelementptr inbounds ptr, ptr %14, i64 %15
  %17 = load ptr, ptr %16, align 8
  %18 = icmp eq ptr %17, null
  br i1 %18, label %_ZN15ConnectionGraph17not_global_escapeEP4Node.exit.thread, label %19

19:                                               ; preds = %12
  %20 = getelementptr inbounds i8, ptr %17, i64 50
  %21 = load i8, ptr %20, align 2
  %22 = icmp ugt i8 %21, 2
  br i1 %22, label %_ZN15ConnectionGraph17not_global_escapeEP4Node.exit.thread, label %23

23:                                               ; preds = %19
  %24 = getelementptr inbounds i8, ptr %17, i64 48
  %25 = load i8, ptr %24, align 8
  %26 = icmp eq i8 %25, 1
  br i1 %26, label %_ZN15ConnectionGraph17not_global_escapeEP4Node.exit, label %27

27:                                               ; preds = %23
  %28 = load i32, ptr %17, align 4
  %29 = icmp sgt i32 %28, 0
  br i1 %29, label %.lr.ph.i, label %_ZN15ConnectionGraph17not_global_escapeEP4Node.exit

.lr.ph.i:                                         ; preds = %27
  %30 = getelementptr inbounds i8, ptr %17, i64 8
  %31 = load ptr, ptr %30, align 8
  %wide.trip.count.i = zext nneg i32 %28 to i64
  br label %33

32:                                               ; preds = %33
  %indvars.iv.next.i = add nuw nsw i64 %indvars.iv.i, 1
  %exitcond.not.i = icmp eq i64 %indvars.iv.next.i, %wide.trip.count.i
  br i1 %exitcond.not.i, label %_ZN15ConnectionGraph17not_global_escapeEP4Node.exit, label %33, !llvm.loop !47

33:                                               ; preds = %32, %.lr.ph.i
  %indvars.iv.i = phi i64 [ 0, %.lr.ph.i ], [ %indvars.iv.next.i, %32 ]
  %34 = getelementptr inbounds ptr, ptr %31, i64 %indvars.iv.i
  %35 = load ptr, ptr %34, align 8
  %36 = getelementptr inbounds i8, ptr %35, i64 50
  %37 = load i8, ptr %36, align 2
  %38 = icmp ult i8 %37, 3
  br i1 %38, label %32, label %_ZN15ConnectionGraph17not_global_escapeEP4Node.exit.thread

_ZN15ConnectionGraph17not_global_escapeEP4Node.exit: ; preds = %32, %27, %23
  %39 = load i8, ptr @EliminateNestedLocks, align 1
  %40 = trunc i8 %39 to i1
  br i1 %40, label %41, label %_ZN15ConnectionGraph17not_global_escapeEP4Node.exit.thread

41:                                               ; preds = %_ZN15ConnectionGraph17not_global_escapeEP4Node.exit
  %42 = getelementptr inbounds i8, ptr %6, i64 48
  %43 = load ptr, ptr %42, align 8
  %44 = getelementptr inbounds i8, ptr %43, i64 152
  store i32 1, ptr %44, align 8
  br label %_ZN15ConnectionGraph17not_global_escapeEP4Node.exit.thread

_ZN15ConnectionGraph17not_global_escapeEP4Node.exit.thread: ; preds = %33, %19, %12, %4, %2, %_ZN15ConnectionGraph17not_global_escapeEP4Node.exit, %41
  %.0 = phi i1 [ true, %41 ], [ true, %_ZN15ConnectionGraph17not_global_escapeEP4Node.exit ], [ false, %2 ], [ false, %4 ], [ false, %12 ], [ false, %19 ], [ false, %33 ]
  ret i1 %.0
}